; Function Attrs: nounwind uwtable
define range(i32 -1, 1) i32 @evtag_decode_int(ptr noundef writeonly captures(none) %0, ptr noundef %1) local_unnamed_addr #1 {
  %3 = tail call i64 @evbuffer_get_length(ptr noundef %1) #7
  %4 = icmp slt i64 %3, 1
  br i1 %4, label %decode_int_internal.exit.thread, label %5

5:                                                ; preds = %2
  %6 = tail call ptr @evbuffer_pullup(ptr noundef %1, i64 noundef 1) #7
  %.not.i = icmp eq ptr %6, null
  br i1 %.not.i, label %decode_int_internal.exit.thread, label %7

7:                                                ; preds = %5
  %8 = load i8, ptr %6, align 1
  %9 = lshr i8 %8, 4
  %narrow.i = add nuw nsw i8 %9, 1
  %10 = zext nneg i8 %narrow.i to i32
  %11 = icmp slt i8 %8, 0
  br i1 %11, label %decode_int_internal.exit.thread, label %12

12:                                               ; preds = %7
  %13 = lshr i32 %10, 1
  %14 = add nuw nsw i32 %13, 1
  %15 = zext nneg i32 %14 to i64
  %16 = icmp samesign ult i64 %3, %15
  br i1 %16, label %decode_int_internal.exit.thread, label %17

17:                                               ; preds = %12
  %18 = tail call ptr @evbuffer_pullup(ptr noundef %1, i64 noundef %15) #7
  %.not36.i = icmp eq ptr %18, null
  br i1 %.not36.i, label %decode_int_internal.exit.thread, label %.preheader.i

.preheader.i:                                     ; preds = %17, %.preheader.i
  %.039.i = phi i32 [ %27, %.preheader.i ], [ %10, %17 ]
  %.03038.i = phi i32 [ %.1.i, %.preheader.i ], [ 0, %17 ]
  %19 = shl i32 %.03038.i, 4
  %20 = and i32 %.039.i, 1
  %.not37.i = icmp eq i32 %20, 0
  %21 = lshr i32 %.039.i, 1
  %22 = zext nneg i32 %21 to i64
  %23 = getelementptr inbounds nuw i8, ptr %18, i64 %22
  %24 = load i8, ptr %23, align 1
  %25 = and i8 %24, 15
  %26 = lshr i8 %24, 4
  %.pn.in.i = select i1 %.not37.i, i8 %26, i8 %25
  %.pn.i = zext nneg i8 %.pn.in.i to i32
  %.1.i = or disjoint i32 %19, %.pn.i
  %27 = add nsw i32 %.039.i, -1
  %28 = icmp samesign ugt i32 %.039.i, 1
  br i1 %28, label %.preheader.i, label %decode_int_internal.exit, !llvm.loop !7

decode_int_internal.exit:                         ; preds = %.preheader.i
  store i32 %.1.i, ptr %0, align 4
  %29 = tail call i32 @evbuffer_drain(ptr noundef %1, i64 noundef %15) #7
  br label %decode_int_internal.exit.thread

decode_int_internal.exit.thread:                  ; preds = %17, %7, %12, %5, %2, %decode_int_internal.exit
  %.not7 = phi i32 [ 0, %decode_int_internal.exit ], [ -1, %2 ], [ -1, %5 ], [ -1, %12 ], [ -1, %7 ], [ -1, %17 ]
  ret i32 %.not7
}